; Function Attrs: mustprogress uwtable
define noundef zeroext i16 @_ZN6icu_7525FCDUIterCollationIterator23handleGetTrailSurrogateEv(ptr nocapture noundef nonnull align 8 dereferenceable(488) %this) unnamed_addr #1 align 2 {
entry:
  %state = getelementptr inbounds i8, ptr %this, i64 400
  %0 = load i32, ptr %state, align 8
  %cmp = icmp slt i32 %0, 3
  br i1 %cmp, label %if.then, label %if.else15

if.then:                                          ; preds = %entry
  %iter = getelementptr inbounds i8, ptr %this, i64 392
  %1 = load ptr, ptr %iter, align 8
  %next = getelementptr inbounds i8, ptr %1, i64 72
  %2 = load ptr, ptr %next, align 8
  %call = tail call noundef i32 %2(ptr noundef %1)
  %and = and i32 %call, -1024
  %cmp3 = icmp eq i32 %and, 56320
  br i1 %cmp3, label %if.then4, label %if.else

if.then4:                                         ; preds = %if.then
  %3 = load i32, ptr %state, align 8
  %cmp6 = icmp eq i32 %3, 2
  br i1 %cmp6, label %if.then7, label %if.end14

if.then7:                                         ; preds = %if.then4
  %pos = getelementptr inbounds i8, ptr %this, i64 408
  %4 = load i32, ptr %pos, align 8
  %inc = add nsw i32 %4, 1
  store i32 %inc, ptr %pos, align 8
  br label %if.end14

if.else:                                          ; preds = %if.then
  %cmp8 = icmp sgt i32 %call, -1
  br i1 %cmp8, label %if.then9, label %if.end14

if.then9:                                         ; preds = %if.else
  %5 = load ptr, ptr %iter, align 8
  %previous = getelementptr inbounds i8, ptr %5, i64 80
  %6 = load ptr, ptr %previous, align 8
  %call12 = tail call noundef i32 %6(ptr noundef %5)
  br label %if.end14

if.end14:                                         ; preds = %if.else, %if.then9, %if.then4, %if.then7
  %conv = trunc i32 %call to i16
  br label %return

if.else15:                                        ; preds = %entry
  %pos17 = getelementptr inbounds i8, ptr %this, i64 408
  %7 = load i32, ptr %pos17, align 8
  %fUnion.i.i.i.i = getelementptr inbounds i8, ptr %this, i64 432
  %8 = load i16, ptr %fUnion.i.i.i.i, align 8
  %cmp.i.i.i.i = icmp slt i16 %8, 0
  %9 = ashr i16 %8, 5
  %shr.i.i.i.i = sext i16 %9 to i32
  %fLength.i.i.i = getelementptr inbounds i8, ptr %this, i64 436
  %10 = load i32, ptr %fLength.i.i.i, align 4
  %cond.i.i.i = select i1 %cmp.i.i.i.i, i32 %10, i32 %shr.i.i.i.i
  %cmp.i.i = icmp ugt i32 %cond.i.i.i, %7
  br i1 %cmp.i.i, label %_ZNK6icu_7513UnicodeStringixEi.exit, label %return

_ZNK6icu_7513UnicodeStringixEi.exit:              ; preds = %if.else15
  %11 = and i16 %8, 2
  %tobool.not.i.i.i = icmp eq i16 %11, 0
  %fBuffer.i.i.i = getelementptr inbounds i8, ptr %this, i64 434
  %fArray.i.i.i = getelementptr inbounds i8, ptr %this, i64 448
  %12 = load ptr, ptr %fArray.i.i.i, align 8
  %cond.i2.i.i = select i1 %tobool.not.i.i.i, ptr %12, ptr %fBuffer.i.i.i
  %idxprom.i.i = sext i32 %7 to i64
  %arrayidx.i.i = getelementptr inbounds i16, ptr %cond.i2.i.i, i64 %idxprom.i.i
  %13 = load i16, ptr %arrayidx.i.i, align 2
  %14 = and i16 %13, -1024
  %cmp21 = icmp eq i16 %14, -9216
  br i1 %cmp21, label %if.then22, label %return

if.then22:                                        ; preds = %_ZNK6icu_7513UnicodeStringixEi.exit
  %inc24 = add nuw nsw i32 %7, 1
  store i32 %inc24, ptr %pos17, align 8
  br label %return

return:                                           ; preds = %if.else15, %_ZNK6icu_7513UnicodeStringixEi.exit, %if.then22, %if.end14
  %retval.0 = phi i16 [ %conv, %if.end14 ], [ %13, %if.then22 ], [ %13, %_ZNK6icu_7513UnicodeStringixEi.exit ], [ -1, %if.else15 ]
  ret i16 %retval.0
}